target datalayout = "e-m:e-p270:32:32-p271:32:32-p272:64:64-i64:64-i128:128-f80:128-n8:16:32:64-S128"
target triple = "x86_64-pc-linux-gnu"

%struct._zend_executor_globals = type { %struct._zval_struct, %struct._zval_struct, [32 x ptr], ptr, ptr, %struct._zend_array, %struct._zend_array, ptr, i32, i8, %struct._zval_struct, i32, ptr, ptr, ptr, ptr, ptr, ptr, i64, ptr, ptr, i32, ptr, i32, i64, i32, i32, i32, i8, i8, %struct.zend_atomic_bool_s, %struct.zend_atomic_bool_s, ptr, i64, ptr, ptr, %struct._zend_array, %struct._zend_array, i32, i8, %struct._zval_struct, %struct._zval_struct, %struct._zend_stack, %struct._zend_stack, %struct._zend_stack, ptr, i32, i32, i64, ptr, ptr, ptr, %struct._zend_objects_store, %struct._zend_lazy_objects_store, ptr, ptr, ptr, [3 x %struct._zend_op], ptr, i8, i8, i64, i32, i32, ptr, [16 x %struct._HashTableIterator], ptr, %union._zend_function, %struct._zend_op, %struct._zend_array, i64, %struct.zend_get_gc_buffer, ptr, ptr, ptr, i64, i8, i32, ptr, ptr, i64, %struct._zend_call_stack, i64, i64, %struct._zend_strtod_state, [6 x ptr] }
%struct.zend_atomic_bool_s = type { i8 }
%struct._zval_struct = type { %union._zend_value, %union.anon, %union.anon.2 }
%union._zend_value = type { i64 }
%union.anon = type { i32 }
%union.anon.2 = type { i32 }
%struct._zend_stack = type { i32, i32, i32, ptr }
%struct._zend_objects_store = type { ptr, i32, i32, i32 }
%struct._zend_lazy_objects_store = type { %struct._zend_array }
%struct._HashTableIterator = type { ptr, i32, i32 }
%union._zend_function = type { %struct._zend_op_array }
%struct._zend_op_array = type { i8, [3 x i8], i32, ptr, ptr, ptr, i32, i32, ptr, ptr, ptr, ptr, i32, ptr, i32, i32, i32, ptr, ptr, ptr, ptr, ptr, i32, i32, ptr, ptr, ptr, i32, i32, i32, i32, ptr, ptr, [6 x ptr] }
%struct._zend_op = type { ptr, %union._znode_op, %union._znode_op, %union._znode_op, i32, i32, i8, i8, i8, i8 }
%union._znode_op = type { i32 }
%struct._zend_array = type { %struct._zend_refcounted_h, %union.anon.4, i32, %union.anon.6, i32, i32, i32, i32, i64, ptr }
%struct._zend_refcounted_h = type { i32, %union.anon.3 }
%union.anon.3 = type { i32 }
%union.anon.4 = type { i32 }
%union.anon.6 = type { ptr }
%struct.zend_get_gc_buffer = type { ptr, ptr, ptr }
%struct._zend_call_stack = type { ptr, i64 }
%struct._zend_strtod_state = type { [8 x ptr], ptr, ptr }
%struct._zend_execute_data = type { ptr, ptr, ptr, ptr, %struct._zval_struct, ptr, ptr, ptr, ptr }
%struct._zend_object = type { %struct._zend_refcounted_h, i32, i32, ptr, ptr, ptr, [1 x %struct._zval_struct] }
%struct.anon.0 = type { i8, i8, %union.anon.1 }
%union.anon.1 = type { i16 }

@.str = private unnamed_addr constant [4 x i8] c"z|b\00", align 1
@executor_globals = external global %struct._zend_executor_globals, align 8
@.str.1 = private unnamed_addr constant [40 x i8] c"must be of type object|string, %s given\00", align 1

; Function Attrs: alwaysinline nounwind uwtable
define internal zeroext i8 @zval_get_type(ptr noundef %0) #4 {
  %2 = alloca ptr, align 8
  store ptr %0, ptr %2, align 8, !tbaa !9
  %3 = load ptr, ptr %2, align 8, !tbaa !9
  %4 = getelementptr inbounds nuw %struct._zval_struct, ptr %3, i32 0, i32 1
  %5 = getelementptr inbounds nuw %struct.anon.0, ptr %4, i32 0, i32 0
  %6 = load i8, ptr %5, align 8, !tbaa !13
  ret i8 %6
}

; Function Attrs: nounwind uwtable
define hidden void @zif_class_implements(ptr noundef %0, ptr noundef %1) #0 {
  %3 = alloca ptr, align 8
  %4 = alloca ptr, align 8
  %5 = alloca ptr, align 8
  %6 = alloca i8, align 1
  %7 = alloca ptr, align 8
  %8 = alloca i32, align 4
  %9 = alloca ptr, align 8
  %10 = alloca ptr, align 8
  store ptr %0, ptr %3, align 8, !tbaa !4
  store ptr %1, ptr %4, align 8, !tbaa !9
  call void @llvm.lifetime.start.p0(i64 8, ptr %5) #12
  call void @llvm.lifetime.start.p0(i64 1, ptr %6) #12
  store i8 1, ptr %6, align 1, !tbaa !11
  call void @llvm.lifetime.start.p0(i64 8, ptr %7) #12
  %11 = load ptr, ptr %3, align 8, !tbaa !4
  %12 = getelementptr inbounds nuw %struct._zend_execute_data, ptr %11, i32 0, i32 4
  %13 = getelementptr inbounds nuw %struct._zval_struct, ptr %12, i32 0, i32 2
  %14 = load i32, ptr %13, align 4, !tbaa !13
  %15 = call i32 (i32, ptr, ...) @zend_parse_parameters(i32 noundef %14, ptr noundef @.str, ptr noundef %5, ptr noundef %6)
  %16 = icmp eq i32 %15, -1
  br i1 %16, label %17, label %23

17:                                               ; preds = %2
  br label %18

18:                                               ; preds = %17
  %19 = load ptr, ptr getelementptr inbounds nuw (%struct._zend_executor_globals, ptr @executor_globals, i32 0, i32 54), align 8, !tbaa !14
  %20 = icmp ne ptr %19, null
  call void @llvm.assume(i1 %20)
  store i32 1, ptr %8, align 4
  br label %83

21:                                               ; No predecessors!
  br label %22

22:                                               ; preds = %21
  br label %23

23:                                               ; preds = %22, %2
  %24 = load ptr, ptr %5, align 8, !tbaa !9
  %25 = call zeroext i8 @zval_get_type(ptr noundef %24)
  %26 = zext i8 %25 to i32
  %27 = icmp ne i32 %26, 8
  br i1 %27, label %28, label %41

28:                                               ; preds = %23
  %29 = load ptr, ptr %5, align 8, !tbaa !9
  %30 = call zeroext i8 @zval_get_type(ptr noundef %29)
  %31 = zext i8 %30 to i32
  %32 = icmp ne i32 %31, 6
  br i1 %32, label %33, label %41

33:                                               ; preds = %28
  %34 = load ptr, ptr %5, align 8, !tbaa !9
  %35 = call ptr @zend_zval_value_name(ptr noundef %34)
  call void (i32, ptr, ...) @zend_argument_type_error(i32 noundef 1, ptr noundef @.str.1, ptr noundef %35)
  br label %36

36:                                               ; preds = %33
  %37 = load ptr, ptr getelementptr inbounds nuw (%struct._zend_executor_globals, ptr @executor_globals, i32 0, i32 54), align 8, !tbaa !14
  %38 = icmp ne ptr %37, null
  call void @llvm.assume(i1 %38)
  store i32 1, ptr %8, align 4
  br label %83

39:                                               ; No predecessors!
  br label %40

40:                                               ; preds = %39
  br label %41

41:                                               ; preds = %40, %28, %23
  %42 = load ptr, ptr %5, align 8, !tbaa !9
  %43 = call zeroext i8 @zval_get_type(ptr noundef %42)
  %44 = zext i8 %43 to i32
  %45 = icmp eq i32 %44, 6
  br i1 %45, label %46, label %64

46:                                               ; preds = %41
  %47 = load ptr, ptr %5, align 8, !tbaa !9
  %48 = getelementptr inbounds nuw %struct._zval_struct, ptr %47, i32 0, i32 0
  %49 = load ptr, ptr %48, align 8, !tbaa !13
  %50 = load i8, ptr %6, align 1, !tbaa !11, !range !46, !noundef !47
  %51 = trunc i8 %50 to i1
  %52 = call ptr @spl_find_ce_by_name(ptr noundef %49, i1 noundef zeroext %51)
  store ptr %52, ptr %7, align 8, !tbaa !48
  %53 = icmp eq ptr null, %52
  br i1 %53, label %54, label %63

54:                                               ; preds = %46
  br label %55

55:                                               ; preds = %54
  br label %56

56:                                               ; preds = %55
  %57 = load ptr, ptr %4, align 8, !tbaa !9
  %58 = getelementptr inbounds nuw %struct._zval_struct, ptr %57, i32 0, i32 1
  store i32 2, ptr %58, align 8, !tbaa !13
  br label %59

59:                                               ; preds = %56
  br label %60

60:                                               ; preds = %59
  store i32 1, ptr %8, align 4
  br label %83

61:                                               ; No predecessors!
  br label %62

62:                                               ; preds = %61
  br label %63

63:                                               ; preds = %62, %46
  br label %70

64:                                               ; preds = %41
  %65 = load ptr, ptr %5, align 8, !tbaa !9
  %66 = getelementptr inbounds nuw %struct._zval_struct, ptr %65, i32 0, i32 0
  %67 = load ptr, ptr %66, align 8, !tbaa !13
  %68 = getelementptr inbounds nuw %struct._zend_object, ptr %67, i32 0, i32 3
  %69 = load ptr, ptr %68, align 8, !tbaa !49
  store ptr %69, ptr %7, align 8, !tbaa !48
  br label %70

70:                                               ; preds = %64, %63
  br label %71

71:                                               ; preds = %70
  call void @llvm.lifetime.start.p0(i64 8, ptr %9) #12
  %72 = call ptr @_zend_new_array_0()
  store ptr %72, ptr %9, align 8, !tbaa !52
  call void @llvm.lifetime.start.p0(i64 8, ptr %10) #12
  %73 = load ptr, ptr %4, align 8, !tbaa !9
  store ptr %73, ptr %10, align 8, !tbaa !9
  %74 = load ptr, ptr %9, align 8, !tbaa !52
  %75 = load ptr, ptr %10, align 8, !tbaa !9
  %76 = getelementptr inbounds nuw %struct._zval_struct, ptr %75, i32 0, i32 0
  store ptr %74, ptr %76, align 8, !tbaa !13
  %77 = load ptr, ptr %10, align 8, !tbaa !9
  %78 = getelementptr inbounds nuw %struct._zval_struct, ptr %77, i32 0, i32 1
  store i32 775, ptr %78, align 8, !tbaa !13
  call void @llvm.lifetime.end.p0(i64 8, ptr %10) #12
  call void @llvm.lifetime.end.p0(i64 8, ptr %9) #12
  br label %79

79:                                               ; preds = %71
  br label %80

80:                                               ; preds = %79
  %81 = load ptr, ptr %4, align 8, !tbaa !9
  %82 = load ptr, ptr %7, align 8, !tbaa !48
  call void @spl_add_interfaces(ptr noundef %81, ptr noundef %82, i32 noundef 1, i32 noundef 1)
  store i32 0, ptr %8, align 4
  br label %83

83:                                               ; preds = %80, %60, %36, %18
  call void @llvm.lifetime.end.p0(i64 8, ptr %7) #12
  call void @llvm.lifetime.end.p0(i64 1, ptr %6) #12
  call void @llvm.lifetime.end.p0(i64 8, ptr %5) #12
  %84 = load i32, ptr %8, align 4
  switch i32 %84, label %86 [
    i32 0, label %85
    i32 1, label %85
  ]

85:                                               ; preds = %83, %83
  ret void

86:                                               ; preds = %83
  unreachable
}